target datalayout = "e-m:e-p270:32:32-p271:32:32-p272:64:64-i64:64-i128:128-f80:128-n8:16:32:64-S128"
target triple = "x86_64-unknown-linux-gnu"

%"class.rocksdb::InternalStats" = type { [9 x %"struct.std::atomic"], [14 x i64], [14 x i64], %"class.std::shared_ptr", %"class.std::vector.35", %"class.std::vector.35", %"struct.rocksdb::InternalStats::CompactionStats", %"class.std::vector.40", %"class.rocksdb::HistogramImpl", i8, i32, i64, %"struct.rocksdb::InternalStats::CFStatsSnapshot", %"struct.rocksdb::InternalStats::DBStatsSnapshot", i64, i32, ptr, ptr, i64 }
%"struct.std::atomic" = type { %"struct.std::__atomic_base" }
%"struct.std::__atomic_base" = type { i64 }
%"class.std::shared_ptr" = type { %"class.std::__shared_ptr" }
%"class.std::__shared_ptr" = type { ptr, %"class.std::__shared_count" }
%"class.std::__shared_count" = type { ptr }
%"class.std::vector.35" = type { %"struct.std::_Vector_base.36" }
%"struct.std::_Vector_base.36" = type { %"struct.std::_Vector_base<rocksdb::InternalStats::CompactionStats, std::allocator<rocksdb::InternalStats::CompactionStats>>::_Vector_impl" }
%"struct.std::_Vector_base<rocksdb::InternalStats::CompactionStats, std::allocator<rocksdb::InternalStats::CompactionStats>>::_Vector_impl" = type { %"struct.std::_Vector_base<rocksdb::InternalStats::CompactionStats, std::allocator<rocksdb::InternalStats::CompactionStats>>::_Vector_impl_data" }
%"struct.std::_Vector_base<rocksdb::InternalStats::CompactionStats, std::allocator<rocksdb::InternalStats::CompactionStats>>::_Vector_impl_data" = type { ptr, ptr, ptr }
%"struct.rocksdb::InternalStats::CompactionStats" = type <{ i64, i64, i64, i64, i64, i64, i64, i64, i32, i32, i32, i32, i64, i64, i64, i32, [20 x i32], [4 x i8] }>
%"class.std::vector.40" = type { %"struct.std::_Vector_base.41" }
%"struct.std::_Vector_base.41" = type { %"struct.std::_Vector_base<rocksdb::HistogramImpl, std::allocator<rocksdb::HistogramImpl>>::_Vector_impl" }
%"struct.std::_Vector_base<rocksdb::HistogramImpl, std::allocator<rocksdb::HistogramImpl>>::_Vector_impl" = type { %"struct.std::_Vector_base<rocksdb::HistogramImpl, std::allocator<rocksdb::HistogramImpl>>::_Vector_impl_data" }
%"struct.std::_Vector_base<rocksdb::HistogramImpl, std::allocator<rocksdb::HistogramImpl>>::_Vector_impl_data" = type { ptr, ptr, ptr }
%"class.rocksdb::HistogramImpl" = type { %"class.rocksdb::Histogram", %"struct.rocksdb::HistogramStat", %"class.std::mutex" }
%"class.rocksdb::Histogram" = type { ptr }
%"struct.rocksdb::HistogramStat" = type { %"struct.std::atomic", %"struct.std::atomic", %"struct.std::atomic", %"struct.std::atomic", %"struct.std::atomic", [109 x %"struct.std::atomic"], i64 }
%"class.std::mutex" = type { %"class.std::__mutex_base" }
%"class.std::__mutex_base" = type { %union.pthread_mutex_t }
%union.pthread_mutex_t = type { %struct.__pthread_mutex_s }
%struct.__pthread_mutex_s = type { i32, i32, i32, i32, i32, i16, i16, %struct.__pthread_internal_list }
%struct.__pthread_internal_list = type { ptr, ptr }
%"struct.rocksdb::InternalStats::CFStatsSnapshot" = type { %"struct.rocksdb::InternalStats::CompactionStats", i64, i64, i64, i64, i64, double, i64, i64, i64, i64 }
%"struct.rocksdb::InternalStats::DBStatsSnapshot" = type { i64, i64, i64, i64, i64, i64, i64, i64, double }

; Function Attrs: mustprogress nounwind uwtable
define linkonce_odr noundef ptr @_ZNKSt12__shared_ptrIN7rocksdb24CacheEntryStatsCollectorINS0_13InternalStats19CacheEntryRoleStatsEEELN9__gnu_cxx12_Lock_policyE2EE3getEv(ptr noundef nonnull align 8 dereferenceable(16) %this) #1 comdat align 2 {
entry:
  %this.addr = alloca ptr, align 8
  store ptr %this, ptr %this.addr, align 8
  %this1 = load ptr, ptr %this.addr, align 8
  %_M_ptr = getelementptr inbounds %"class.std::__shared_ptr", ptr %this1, i32 0, i32 0
  %0 = load ptr, ptr %_M_ptr, align 8
  ret ptr %0
}

; Function Attrs: mustprogress nounwind uwtable
define linkonce_odr noundef ptr @_ZNKSt19__shared_ptr_accessIN7rocksdb24CacheEntryStatsCollectorINS0_13InternalStats19CacheEntryRoleStatsEEELN9__gnu_cxx12_Lock_policyE2ELb0ELb0EE6_M_getEv(ptr noundef nonnull align 1 dereferenceable(1) %this) #1 comdat align 2 {
entry:
  %this.addr = alloca ptr, align 8
  store ptr %this, ptr %this.addr, align 8
  %this1 = load ptr, ptr %this.addr, align 8
  %call = call noundef ptr @_ZNKSt12__shared_ptrIN7rocksdb24CacheEntryStatsCollectorINS0_13InternalStats19CacheEntryRoleStatsEEELN9__gnu_cxx12_Lock_policyE2EE3getEv(ptr noundef nonnull align 8 dereferenceable(16) %this1) #3
  ret ptr %call
}

; Function Attrs: mustprogress nounwind uwtable
define linkonce_odr noundef ptr @_ZNKSt19__shared_ptr_accessIN7rocksdb24CacheEntryStatsCollectorINS0_13InternalStats19CacheEntryRoleStatsEEELN9__gnu_cxx12_Lock_policyE2ELb0ELb0EEptEv(ptr noundef nonnull align 1 dereferenceable(1) %this) #1 comdat align 2 {
entry:
  %this.addr = alloca ptr, align 8
  store ptr %this, ptr %this.addr, align 8
  %this1 = load ptr, ptr %this.addr, align 8
  %call = call noundef ptr @_ZNKSt19__shared_ptr_accessIN7rocksdb24CacheEntryStatsCollectorINS0_13InternalStats19CacheEntryRoleStatsEEELN9__gnu_cxx12_Lock_policyE2ELb0ELb0EE6_M_getEv(ptr noundef nonnull align 1 dereferenceable(1) %this1) #3
  ret ptr %call
}

; Function Attrs: mustprogress nounwind uwtable
define linkonce_odr noundef zeroext i1 @_ZNKSt12__shared_ptrIN7rocksdb24CacheEntryStatsCollectorINS0_13InternalStats19CacheEntryRoleStatsEEELN9__gnu_cxx12_Lock_policyE2EEcvbEv(ptr noundef nonnull align 8 dereferenceable(16) %this) #1 comdat align 2 {
entry:
  %this.addr = alloca ptr, align 8
  store ptr %this, ptr %this.addr, align 8
  %this1 = load ptr, ptr %this.addr, align 8
  %_M_ptr = getelementptr inbounds %"class.std::__shared_ptr", ptr %this1, i32 0, i32 0
  %0 = load ptr, ptr %_M_ptr, align 8
  %cmp = icmp ne ptr %0, null
  ret i1 %cmp
}

; Function Attrs: mustprogress uwtable
define void @_ZN7rocksdb13InternalStats22CollectCacheEntryStatsEb(ptr noundef nonnull align 8 dereferenceable(1944) %this, i1 noundef zeroext %foreground) #0 align 2 {
entry:
  %this.addr = alloca ptr, align 8
  %foreground.addr = alloca i8, align 1
  %min_interval_seconds = alloca i32, align 4
  %min_interval_factor = alloca i32, align 4
  store ptr %this, ptr %this.addr, align 8
  %frombool = zext i1 %foreground to i8
  store i8 %frombool, ptr %foreground.addr, align 1
  %this1 = load ptr, ptr %this.addr, align 8
  %cache_entry_stats_collector_ = getelementptr inbounds %"class.rocksdb::InternalStats", ptr %this1, i32 0, i32 3
  %call = call noundef zeroext i1 @_ZNKSt12__shared_ptrIN7rocksdb24CacheEntryStatsCollectorINS0_13InternalStats19CacheEntryRoleStatsEEELN9__gnu_cxx12_Lock_policyE2EEcvbEv(ptr noundef nonnull align 8 dereferenceable(16) %cache_entry_stats_collector_) #3
  br i1 %call, label %if.end, label %if.then

if.then:                                          ; preds = %entry
  br label %return

if.end:                                           ; preds = %entry
  %0 = load i8, ptr %foreground.addr, align 1
  %tobool = trunc i8 %0 to i1
  %cond = select i1 %tobool, i32 10, i32 180
  store i32 %cond, ptr %min_interval_seconds, align 4
  %1 = load i8, ptr %foreground.addr, align 1
  %tobool2 = trunc i8 %1 to i1
  %cond3 = select i1 %tobool2, i32 10, i32 500
  store i32 %cond3, ptr %min_interval_factor, align 4
  %cache_entry_stats_collector_4 = getelementptr inbounds %"class.rocksdb::InternalStats", ptr %this1, i32 0, i32 3
  %call5 = call noundef ptr @_ZNKSt19__shared_ptr_accessIN7rocksdb24CacheEntryStatsCollectorINS0_13InternalStats19CacheEntryRoleStatsEEELN9__gnu_cxx12_Lock_policyE2ELb0ELb0EEptEv(ptr noundef nonnull align 1 dereferenceable(1) %cache_entry_stats_collector_4) #3
  %2 = load i32, ptr %min_interval_seconds, align 4
  %3 = load i32, ptr %min_interval_factor, align 4
  call void @_ZN7rocksdb24CacheEntryStatsCollectorINS_13InternalStats19CacheEntryRoleStatsEE12CollectStatsEii(ptr noundef nonnull align 8 dereferenceable(752) %call5, i32 noundef %2, i32 noundef %3)
  br label %return

return:                                           ; preds = %if.end, %if.then
  ret void
}