; Function Attrs: mustprogress uwtable
define void @_ZN7rocksdb13InternalStats22CollectCacheEntryStatsEb(ptr nocapture noundef nonnull readonly align 8 dereferenceable(1944) %this, i1 noundef zeroext %foreground) local_unnamed_addr #4 align 2 {
entry:
  %cache_entry_stats_collector_ = getelementptr inbounds i8, ptr %this, i64 296
  %0 = load ptr, ptr %cache_entry_stats_collector_, align 8
  %cmp.i.not = icmp eq ptr %0, null
  br i1 %cmp.i.not, label %return, label %if.end

if.end:                                           ; preds = %entry
  %cond = select i1 %foreground, i32 10, i32 180
  %cond3 = select i1 %foreground, i32 10, i32 500
  tail call void @_ZN7rocksdb24CacheEntryStatsCollectorINS_13InternalStats19CacheEntryRoleStatsEE12CollectStatsEii(ptr noundef nonnull align 8 dereferenceable(752) %0, i32 noundef %cond, i32 noundef %cond3)
  br label %return

return:                                           ; preds = %entry, %if.end
  ret void
}